target datalayout = "e-m:e-p270:32:32-p271:32:32-p272:64:64-i64:64-i128:128-f80:128-n8:16:32:64-S128"
target triple = "x86_64-pc-linux-gnu"

%"class.std::__cxx11::basic_string" = type { %"struct.std::__cxx11::basic_string<char>::_Alloc_hider", i64, %union.anon }
%"struct.std::__cxx11::basic_string<char>::_Alloc_hider" = type { ptr }
%union.anon = type { i64, [8 x i8] }
%"class.std::allocator" = type { i8 }

@.str = private unnamed_addr constant [17 x i8] c"pixel && offsets\00", align 1
@__func__._ZN2cv16makeAgastOffsetsEPiiNS_20AgastFeatureDetector12DetectorTypeE = private unnamed_addr constant [17 x i8] c"makeAgastOffsets\00", align 1
@.str.1 = private unnamed_addr constant [130 x i8] c"generated/home/dtcxzyw/WorkSpace/Projects/compilers/llvm-opt-benchmark/bench/opencv/opencv/modules/features2d/src/agast_score.cpp\00", align 1

; Function Attrs: mustprogress uwtable
define hidden void @_ZN2cv16makeAgastOffsetsEPiiNS_20AgastFeatureDetector12DetectorTypeE(ptr noundef %0, i32 noundef %1, i32 noundef %2) #0 personality ptr @__gxx_personality_v0 {
  %4 = alloca ptr, align 8
  %5 = alloca i32, align 4
  %6 = alloca i32, align 4
  %7 = alloca ptr, align 8
  %8 = alloca i32, align 4
  %9 = alloca %"class.std::__cxx11::basic_string", align 8
  %10 = alloca %"class.std::allocator", align 1
  %11 = alloca ptr, align 8
  %12 = alloca i32, align 4
  %13 = alloca i32, align 4
  store ptr %0, ptr %4, align 8
  store i32 %1, ptr %5, align 4
  store i32 %2, ptr %6, align 4
  %14 = load i32, ptr %6, align 4
  %15 = icmp eq i32 %14, 3
  br i1 %15, label %16, label %17

16:                                               ; preds = %3
  br label %33

17:                                               ; preds = %3
  %18 = load i32, ptr %6, align 4
  %19 = icmp eq i32 %18, 1
  br i1 %19, label %20, label %21

20:                                               ; preds = %17
  br label %31

21:                                               ; preds = %17
  %22 = load i32, ptr %6, align 4
  %23 = icmp eq i32 %22, 2
  br i1 %23, label %24, label %25

24:                                               ; preds = %21
  br label %29

25:                                               ; preds = %21
  %26 = load i32, ptr %6, align 4
  %27 = icmp eq i32 %26, 0
  %28 = select i1 %27, ptr @_ZZN2cv16makeAgastOffsetsEPiiNS_20AgastFeatureDetector12DetectorTypeEE8offsets8, ptr null
  br label %29

29:                                               ; preds = %25, %24
  %30 = phi ptr [ @_ZZN2cv16makeAgastOffsetsEPiiNS_20AgastFeatureDetector12DetectorTypeEE10offsets12s, %24 ], [ %28, %25 ]
  br label %31

31:                                               ; preds = %29, %20
  %32 = phi ptr [ @_ZZN2cv16makeAgastOffsetsEPiiNS_20AgastFeatureDetector12DetectorTypeEE10offsets12d, %20 ], [ %30, %29 ]
  br label %33

33:                                               ; preds = %31, %16
  %34 = phi ptr [ @_ZZN2cv16makeAgastOffsetsEPiiNS_20AgastFeatureDetector12DetectorTypeEE9offsets16, %16 ], [ %32, %31 ]
  store ptr %34, ptr %7, align 8
  %35 = load i32, ptr %6, align 4
  %36 = icmp eq i32 %35, 3
  br i1 %36, label %37, label %38

37:                                               ; preds = %33
  br label %54

38:                                               ; preds = %33
  %39 = load i32, ptr %6, align 4
  %40 = icmp eq i32 %39, 1
  br i1 %40, label %41, label %42

41:                                               ; preds = %38
  br label %52

42:                                               ; preds = %38
  %43 = load i32, ptr %6, align 4
  %44 = icmp eq i32 %43, 2
  br i1 %44, label %45, label %46

45:                                               ; preds = %42
  br label %50

46:                                               ; preds = %42
  %47 = load i32, ptr %6, align 4
  %48 = icmp eq i32 %47, 0
  %49 = select i1 %48, i32 8, i32 0
  br label %50

50:                                               ; preds = %46, %45
  %51 = phi i32 [ 12, %45 ], [ %49, %46 ]
  br label %52

52:                                               ; preds = %50, %41
  %53 = phi i32 [ 12, %41 ], [ %51, %50 ]
  br label %54

54:                                               ; preds = %52, %37
  %55 = phi i32 [ 16, %37 ], [ %53, %52 ]
  store i32 %55, ptr %8, align 4
  br label %56

56:                                               ; preds = %54
  %57 = load ptr, ptr %4, align 8
  %58 = icmp ne ptr %57, null
  br i1 %58, label %59, label %63

59:                                               ; preds = %56
  %60 = load ptr, ptr %7, align 8
  %61 = icmp ne ptr %60, null
  br i1 %61, label %62, label %63

62:                                               ; preds = %59
  br label %75

63:                                               ; preds = %59, %56
  call void @_ZNSaIcEC1Ev(ptr noundef nonnull align 1 dereferenceable(1) %10) #5
  invoke void @_ZNSt7__cxx1112basic_stringIcSt11char_traitsIcESaIcEEC1EPKcRKS3_(ptr noundef nonnull align 8 dereferenceable(32) %9, ptr noundef @.str, ptr noundef nonnull align 1 dereferenceable(1) %10)
          to label %64 unwind label %66

64:                                               ; preds = %63
  invoke void @_ZN2cv5errorEiRKNSt7__cxx1112basic_stringIcSt11char_traitsIcESaIcEEEPKcS9_i(i32 noundef -215, ptr noundef nonnull align 8 dereferenceable(32) %9, ptr noundef @__func__._ZN2cv16makeAgastOffsetsEPiiNS_20AgastFeatureDetector12DetectorTypeE, ptr noundef @.str.1, i32 noundef 86) #6
          to label %65 unwind label %70

65:                                               ; preds = %64
  unreachable

66:                                               ; preds = %63
  %67 = landingpad { ptr, i32 }
          cleanup
  %68 = extractvalue { ptr, i32 } %67, 0
  store ptr %68, ptr %11, align 8
  %69 = extractvalue { ptr, i32 } %67, 1
  store i32 %69, ptr %12, align 4
  br label %74

70:                                               ; preds = %64
  %71 = landingpad { ptr, i32 }
          cleanup
  %72 = extractvalue { ptr, i32 } %71, 0
  store ptr %72, ptr %11, align 8
  %73 = extractvalue { ptr, i32 } %71, 1
  store i32 %73, ptr %12, align 4
  call void @_ZNSt7__cxx1112basic_stringIcSt11char_traitsIcESaIcEED1Ev(ptr noundef nonnull align 8 dereferenceable(32) %9) #5
  br label %74

74:                                               ; preds = %70, %66
  call void @_ZNSaIcED1Ev(ptr noundef nonnull align 1 dereferenceable(1) %10) #5
  br label %105

75:                                               ; preds = %62
  br label %76

76:                                               ; preds = %75
  store i32 0, ptr %13, align 4
  br label %77

77:                                               ; preds = %101, %76
  %78 = load i32, ptr %13, align 4
  %79 = load i32, ptr %8, align 4
  %80 = icmp slt i32 %78, %79
  br i1 %80, label %81, label %104

81:                                               ; preds = %77
  %82 = load ptr, ptr %7, align 8
  %83 = load i32, ptr %13, align 4
  %84 = sext i32 %83 to i64
  %85 = getelementptr inbounds [2 x i32], ptr %82, i64 %84
  %86 = getelementptr inbounds [2 x i32], ptr %85, i64 0, i64 0
  %87 = load i32, ptr %86, align 4
  %88 = load ptr, ptr %7, align 8
  %89 = load i32, ptr %13, align 4
  %90 = sext i32 %89 to i64
  %91 = getelementptr inbounds [2 x i32], ptr %88, i64 %90
  %92 = getelementptr inbounds [2 x i32], ptr %91, i64 0, i64 1
  %93 = load i32, ptr %92, align 4
  %94 = load i32, ptr %5, align 4
  %95 = mul nsw i32 %93, %94
  %96 = add nsw i32 %87, %95
  %97 = load ptr, ptr %4, align 8
  %98 = load i32, ptr %13, align 4
  %99 = sext i32 %98 to i64
  %100 = getelementptr inbounds i32, ptr %97, i64 %99
  store i32 %96, ptr %100, align 4
  br label %101

101:                                              ; preds = %81
  %102 = load i32, ptr %13, align 4
  %103 = add nsw i32 %102, 1
  store i32 %103, ptr %13, align 4
  br label %77, !llvm.loop !4

104:                                              ; preds = %77
  ret void

105:                                              ; preds = %74
  %106 = load ptr, ptr %11, align 8
  %107 = load i32, ptr %12, align 4
  %108 = insertvalue { ptr, i32 } poison, ptr %106, 0
  %109 = insertvalue { ptr, i32 } %108, i32 %107, 1
  resume { ptr, i32 } %109
}