; Function Attrs: mustprogress uwtable
define hidden void @_ZN2cv16makeAgastOffsetsEPiiNS_20AgastFeatureDetector12DetectorTypeE(ptr noundef writeonly %0, i32 noundef %1, i32 noundef %2) local_unnamed_addr #0 personality ptr @__gxx_personality_v0 {
  %4 = alloca %"class.std::__cxx11::basic_string", align 8
  %5 = alloca %"class.std::allocator", align 1
  switch i32 %2, label %6 [
    i32 3, label %.thread28
    i32 1, label %.thread28.fold.split
  ]

6:                                                ; preds = %3
  %7 = icmp eq i32 %2, 2
  %8 = icmp eq i32 %2, 0
  %9 = select i1 %8, ptr @_ZZN2cv16makeAgastOffsetsEPiiNS_20AgastFeatureDetector12DetectorTypeEE8offsets8, ptr null
  %10 = select i1 %7, ptr @_ZZN2cv16makeAgastOffsetsEPiiNS_20AgastFeatureDetector12DetectorTypeEE10offsets12s, ptr %9
  %11 = select i1 %8, i32 8, i32 0
  %12 = select i1 %7, i32 12, i32 %11
  br label %.thread28

.thread28.fold.split:                             ; preds = %3
  br label %.thread28

.thread28:                                        ; preds = %3, %.thread28.fold.split, %6
  %13 = phi ptr [ %10, %6 ], [ @_ZZN2cv16makeAgastOffsetsEPiiNS_20AgastFeatureDetector12DetectorTypeEE9offsets16, %3 ], [ @_ZZN2cv16makeAgastOffsetsEPiiNS_20AgastFeatureDetector12DetectorTypeEE10offsets12d, %.thread28.fold.split ]
  %14 = phi i32 [ %12, %6 ], [ 16, %3 ], [ 12, %.thread28.fold.split ]
  %15 = icmp ne ptr %0, null
  %16 = icmp ne ptr %13, null
  %or.cond = and i1 %15, %16
  br i1 %or.cond, label %.preheader, label %17

.preheader:                                       ; preds = %.thread28
  %.not = icmp eq i32 %14, 0
  br i1 %.not, label %._crit_edge, label %.lr.ph.preheader

.lr.ph.preheader:                                 ; preds = %.preheader
  %wide.trip.count = zext nneg i32 %14 to i64
  br label %.lr.ph

17:                                               ; preds = %.thread28
  call void @_ZNSaIcEC1Ev(ptr noundef nonnull align 1 dereferenceable(1) %5) #5
  invoke void @_ZNSt7__cxx1112basic_stringIcSt11char_traitsIcESaIcEEC1EPKcRKS3_(ptr noundef nonnull align 8 dereferenceable(32) %4, ptr noundef nonnull @.str, ptr noundef nonnull align 1 dereferenceable(1) %5)
          to label %18 unwind label %20

18:                                               ; preds = %17
  invoke void @_ZN2cv5errorEiRKNSt7__cxx1112basic_stringIcSt11char_traitsIcESaIcEEEPKcS9_i(i32 noundef -215, ptr noundef nonnull align 8 dereferenceable(32) %4, ptr noundef nonnull @__func__._ZN2cv16makeAgastOffsetsEPiiNS_20AgastFeatureDetector12DetectorTypeE, ptr noundef nonnull @.str.1, i32 noundef 86) #6
          to label %19 unwind label %22

19:                                               ; preds = %18
  unreachable

20:                                               ; preds = %17
  %21 = landingpad { ptr, i32 }
          cleanup
  br label %24

22:                                               ; preds = %18
  %23 = landingpad { ptr, i32 }
          cleanup
  call void @_ZNSt7__cxx1112basic_stringIcSt11char_traitsIcESaIcEED1Ev(ptr noundef nonnull align 8 dereferenceable(32) %4) #5
  br label %24

24:                                               ; preds = %22, %20
  %.pn = phi { ptr, i32 } [ %23, %22 ], [ %21, %20 ]
  call void @_ZNSaIcED1Ev(ptr noundef nonnull align 1 dereferenceable(1) %5) #5
  resume { ptr, i32 } %.pn

.lr.ph:                                           ; preds = %.lr.ph.preheader, %.lr.ph
  %indvars.iv = phi i64 [ 0, %.lr.ph.preheader ], [ %indvars.iv.next, %.lr.ph ]
  %25 = getelementptr inbounds [2 x i32], ptr %13, i64 %indvars.iv
  %26 = load i32, ptr %25, align 4
  %27 = getelementptr inbounds i8, ptr %25, i64 4
  %28 = load i32, ptr %27, align 4
  %29 = mul nsw i32 %28, %1
  %30 = add nsw i32 %29, %26
  %31 = getelementptr inbounds i32, ptr %0, i64 %indvars.iv
  store i32 %30, ptr %31, align 4
  %indvars.iv.next = add nuw nsw i64 %indvars.iv, 1
  %exitcond.not = icmp eq i64 %indvars.iv.next, %wide.trip.count
  br i1 %exitcond.not, label %._crit_edge, label %.lr.ph, !llvm.loop !4

._crit_edge:                                      ; preds = %.lr.ph, %.preheader
  ret void
}